target datalayout = "e-m:e-p270:32:32-p271:32:32-p272:64:64-i64:64-i128:128-f80:128-n8:16:32:64-S128"
target triple = "x86_64-pc-linux-gnu"

%struct._object = type { %union.anon, ptr }
%union.anon = type { i64 }
%struct.anon = type { i32, i32 }

@.str = private unnamed_addr constant [20 x i8] c"call_pyobject_print\00", align 1
@.str.20 = private unnamed_addr constant [3 x i8] c"w+\00", align 1
@.str.21 = private unnamed_addr constant [15 x i8] c"Spam spam spam\00", align 1
@.str.22 = private unnamed_addr constant [19 x i8] c"<refcnt %zd at %p>\00", align 1
@.str.23 = private unnamed_addr constant [12 x i8] c"refcnt >= 0\00", align 1
@.str.24 = private unnamed_addr constant [30 x i8] c"../cpython/Include/refcount.h\00", align 1
@__PRETTY_FUNCTION__.Py_SET_REFCNT = private unnamed_addr constant [43 x i8] c"void Py_SET_REFCNT(PyObject *, Py_ssize_t)\00", align 1

; Function Attrs: alwaysinline nounwind uwtable
define internal i32 @_Py_IsImmortal(ptr noundef %0) #4 {
  %2 = alloca ptr, align 8
  store ptr %0, ptr %2, align 8, !tbaa !3
  %3 = load ptr, ptr %2, align 8, !tbaa !3
  %4 = getelementptr inbounds nuw %struct._object, ptr %3, i32 0, i32 0
  %5 = getelementptr inbounds nuw %struct.anon, ptr %4, i32 0, i32 0
  %6 = load i32, ptr %5, align 8, !tbaa !16
  %7 = icmp slt i32 %6, 0
  %8 = zext i1 %7 to i32
  ret i32 %8
}

; Function Attrs: alwaysinline nounwind uwtable
define internal void @Py_DECREF(ptr noundef %0) #4 {
  %2 = alloca ptr, align 8
  store ptr %0, ptr %2, align 8, !tbaa !3
  %3 = load ptr, ptr %2, align 8, !tbaa !3
  %4 = call i32 @_Py_IsImmortal(ptr noundef %3)
  %5 = icmp ne i32 %4, 0
  br i1 %5, label %6, label %7

6:                                                ; preds = %1
  br label %16

7:                                                ; preds = %1
  %8 = load ptr, ptr %2, align 8, !tbaa !3
  %9 = getelementptr inbounds nuw %struct._object, ptr %8, i32 0, i32 0
  %10 = getelementptr inbounds nuw %struct.anon, ptr %9, i32 0, i32 0
  %11 = load i32, ptr %10, align 8, !tbaa !16
  %12 = add i32 %11, -1
  store i32 %12, ptr %10, align 8, !tbaa !16
  %13 = icmp eq i32 %12, 0
  br i1 %13, label %14, label %16

14:                                               ; preds = %7
  %15 = load ptr, ptr %2, align 8, !tbaa !3
  call void @_Py_Dealloc(ptr noundef %15)
  br label %16

16:                                               ; preds = %6, %14, %7
  ret void
}

; Function Attrs: inlinehint nounwind uwtable
define internal i64 @_Py_REFCNT(ptr noundef %0) #3 {
  %2 = alloca ptr, align 8
  store ptr %0, ptr %2, align 8, !tbaa !3
  %3 = load ptr, ptr %2, align 8, !tbaa !3
  %4 = getelementptr inbounds nuw %struct._object, ptr %3, i32 0, i32 0
  %5 = getelementptr inbounds nuw %struct.anon, ptr %4, i32 0, i32 0
  %6 = load i32, ptr %5, align 8, !tbaa !16
  %7 = zext i32 %6 to i64
  ret i64 %7
}

; Function Attrs: inlinehint nounwind uwtable
define internal void @Py_SET_REFCNT(ptr noundef %0, i64 noundef %1) #3 {
  %3 = alloca ptr, align 8
  %4 = alloca i64, align 8
  store ptr %0, ptr %3, align 8, !tbaa !3
  store i64 %1, ptr %4, align 8, !tbaa !14
  %5 = load i64, ptr %4, align 8, !tbaa !14
  %6 = icmp sge i64 %5, 0
  br i1 %6, label %7, label %8

7:                                                ; preds = %2
  br label %10

8:                                                ; preds = %2
  call void @__assert_fail(ptr noundef @.str.23, ptr noundef @.str.24, i32 noundef 146, ptr noundef @__PRETTY_FUNCTION__.Py_SET_REFCNT) #7
  unreachable

9:                                                ; No predecessors!
  br label %10

10:                                               ; preds = %9, %7
  %11 = load ptr, ptr %3, align 8, !tbaa !3
  %12 = call i32 @_Py_IsImmortal(ptr noundef %11)
  %13 = icmp ne i32 %12, 0
  br i1 %13, label %14, label %15

14:                                               ; preds = %10
  br label %21

15:                                               ; preds = %10
  %16 = load i64, ptr %4, align 8, !tbaa !14
  %17 = trunc i64 %16 to i32
  %18 = load ptr, ptr %3, align 8, !tbaa !3
  %19 = getelementptr inbounds nuw %struct._object, ptr %18, i32 0, i32 0
  %20 = getelementptr inbounds nuw %struct.anon, ptr %19, i32 0, i32 0
  store i32 %17, ptr %20, align 8, !tbaa !16
  br label %21

21:                                               ; preds = %15, %14
  ret void
}

; Function Attrs: nounwind uwtable
define internal ptr @pyobject_print_noref_object(ptr noundef %0, ptr noundef %1) #0 {
  %3 = alloca ptr, align 8
  %4 = alloca ptr, align 8
  %5 = alloca ptr, align 8
  %6 = alloca ptr, align 8
  %7 = alloca ptr, align 8
  %8 = alloca ptr, align 8
  %9 = alloca [100 x i8], align 16
  %10 = alloca i32, align 4
  store ptr %0, ptr %4, align 8, !tbaa !3
  store ptr %1, ptr %5, align 8, !tbaa !3
  call void @llvm.lifetime.start.p0(i64 8, ptr %6) #6
  call void @llvm.lifetime.start.p0(i64 8, ptr %7) #6
  call void @llvm.lifetime.start.p0(i64 8, ptr %8) #6
  call void @llvm.lifetime.start.p0(i64 100, ptr %9) #6
  %11 = call ptr @PyUnicode_FromString(ptr noundef @.str.21)
  store ptr %11, ptr %6, align 8, !tbaa !3
  %12 = load ptr, ptr %6, align 8, !tbaa !3
  call void @Py_SET_REFCNT(ptr noundef %12, i64 noundef 0)
  %13 = getelementptr inbounds [100 x i8], ptr %9, i64 0, i64 0
  %14 = load ptr, ptr %6, align 8, !tbaa !3
  %15 = call i64 @_Py_REFCNT(ptr noundef %14)
  %16 = load ptr, ptr %6, align 8, !tbaa !3
  %17 = call i32 (ptr, i64, ptr, ...) @PyOS_snprintf(ptr noundef %13, i64 noundef 100, ptr noundef @.str.22, i64 noundef %15, ptr noundef %16)
  %18 = load ptr, ptr %5, align 8, !tbaa !3
  %19 = call i32 (ptr, ptr, i64, i64, ...) @PyArg_UnpackTuple(ptr noundef %18, ptr noundef @.str, i64 noundef 1, i64 noundef 1, ptr noundef %7)
  %20 = icmp ne i32 %19, 0
  br i1 %20, label %22, label %21

21:                                               ; preds = %2
  store ptr null, ptr %3, align 8
  store i32 1, ptr %10, align 4
  br label %41

22:                                               ; preds = %2
  %23 = load ptr, ptr %7, align 8, !tbaa !3
  %24 = call ptr @Py_fopen(ptr noundef %23, ptr noundef @.str.20)
  store ptr %24, ptr %8, align 8, !tbaa !10
  %25 = load ptr, ptr %6, align 8, !tbaa !3
  %26 = load ptr, ptr %8, align 8, !tbaa !10
  %27 = call i32 @PyObject_Print(ptr noundef %25, ptr noundef %26, i32 noundef 0)
  %28 = icmp slt i32 %27, 0
  br i1 %28, label %29, label %34

29:                                               ; preds = %22
  %30 = load ptr, ptr %8, align 8, !tbaa !10
  %31 = call i32 @fclose(ptr noundef %30)
  %32 = load ptr, ptr %6, align 8, !tbaa !3
  call void @Py_SET_REFCNT(ptr noundef %32, i64 noundef 1)
  %33 = load ptr, ptr %6, align 8, !tbaa !3
  call void @Py_DECREF(ptr noundef %33)
  store ptr null, ptr %3, align 8
  store i32 1, ptr %10, align 4
  br label %41

34:                                               ; preds = %22
  %35 = load ptr, ptr %8, align 8, !tbaa !10
  %36 = call i32 @fclose(ptr noundef %35)
  %37 = load ptr, ptr %6, align 8, !tbaa !3
  call void @Py_SET_REFCNT(ptr noundef %37, i64 noundef 1)
  %38 = load ptr, ptr %6, align 8, !tbaa !3
  call void @Py_DECREF(ptr noundef %38)
  %39 = getelementptr inbounds [100 x i8], ptr %9, i64 0, i64 0
  %40 = call ptr @PyUnicode_FromString(ptr noundef %39)
  store ptr %40, ptr %3, align 8
  store i32 1, ptr %10, align 4
  br label %41

41:                                               ; preds = %34, %29, %21
  call void @llvm.lifetime.end.p0(i64 100, ptr %9) #6
  call void @llvm.lifetime.end.p0(i64 8, ptr %8) #6
  call void @llvm.lifetime.end.p0(i64 8, ptr %7) #6
  call void @llvm.lifetime.end.p0(i64 8, ptr %6) #6
  %42 = load ptr, ptr %3, align 8
  ret ptr %42
}