; Function Attrs: nounwind uwtable
define internal ptr @pyobject_print_noref_object(ptr readnone captures(none) %0, ptr noundef %1) #0 {
  %3 = alloca ptr, align 8
  %4 = alloca [100 x i8], align 16
  call void @llvm.lifetime.start.p0(i64 8, ptr nonnull %3) #5
  call void @llvm.lifetime.start.p0(i64 100, ptr nonnull %4) #5
  %5 = tail call ptr @PyUnicode_FromString(ptr noundef nonnull @.str.21) #5
  %6 = load i32, ptr %5, align 8, !tbaa !8
  %.not.i16 = icmp sgt i32 %6, -1
  br i1 %.not.i16, label %7, label %Py_SET_REFCNT.exit

7:                                                ; preds = %2
  store i32 0, ptr %5, align 8, !tbaa !8
  br label %Py_SET_REFCNT.exit

Py_SET_REFCNT.exit:                               ; preds = %2, %7
  %.val = phi i32 [ %6, %2 ], [ 0, %7 ]
  %8 = zext i32 %.val to i64
  %9 = call i32 (ptr, i64, ptr, ...) @PyOS_snprintf(ptr noundef nonnull %4, i64 noundef 100, ptr noundef nonnull @.str.22, i64 noundef %8, ptr noundef nonnull %5) #5
  %10 = call i32 (ptr, ptr, i64, i64, ...) @PyArg_UnpackTuple(ptr noundef %1, ptr noundef nonnull @.str, i64 noundef 1, i64 noundef 1, ptr noundef nonnull %3) #5
  %.not = icmp eq i32 %10, 0
  br i1 %.not, label %Py_DECREF.exit, label %11

11:                                               ; preds = %Py_SET_REFCNT.exit
  %12 = load ptr, ptr %3, align 8, !tbaa !3
  %13 = call ptr @Py_fopen(ptr noundef %12, ptr noundef nonnull @.str.20) #5
  %14 = call i32 @PyObject_Print(ptr noundef nonnull %5, ptr noundef %13, i32 noundef 0) #5
  %15 = icmp slt i32 %14, 0
  %16 = call i32 @fclose(ptr noundef %13)
  %17 = load i32, ptr %5, align 8, !tbaa !8
  %.not.i17 = icmp sgt i32 %17, -1
  br i1 %15, label %18, label %20

18:                                               ; preds = %11
  br i1 %.not.i17, label %19, label %Py_DECREF.exit

19:                                               ; preds = %18
  store i32 0, ptr %5, align 8, !tbaa !8
  call void @_Py_Dealloc(ptr noundef nonnull %5) #5
  br label %Py_DECREF.exit

20:                                               ; preds = %11
  br i1 %.not.i17, label %21, label %Py_DECREF.exit14

21:                                               ; preds = %20
  store i32 0, ptr %5, align 8, !tbaa !8
  call void @_Py_Dealloc(ptr noundef nonnull %5) #5
  br label %Py_DECREF.exit14

Py_DECREF.exit14:                                 ; preds = %20, %21
  %22 = call ptr @PyUnicode_FromString(ptr noundef nonnull %4) #5
  br label %Py_DECREF.exit

Py_DECREF.exit:                                   ; preds = %18, %19, %Py_SET_REFCNT.exit, %Py_DECREF.exit14
  %.0 = phi ptr [ %22, %Py_DECREF.exit14 ], [ null, %Py_SET_REFCNT.exit ], [ null, %19 ], [ null, %18 ]
  call void @llvm.lifetime.end.p0(i64 100, ptr nonnull %4) #5
  call void @llvm.lifetime.end.p0(i64 8, ptr nonnull %3) #5
  ret ptr %.0
}